target datalayout = "e-m:e-p270:32:32-p271:32:32-p272:64:64-i64:64-i128:128-f80:128-n8:16:32:64-S128"
target triple = "x86_64-pc-linux-gnu"

%struct.lxb_html_tokenizer = type { ptr, ptr, ptr, ptr, ptr, ptr, ptr, ptr, ptr, ptr, ptr, ptr, ptr, ptr, ptr, i64, ptr, ptr, ptr, ptr, ptr, i64, i64, ptr, ptr, i64, i64, i32, i32, i8, i32, i32, i8, ptr, i64 }
%struct.lxb_html_token_t = type { ptr, ptr, i64, i64, ptr, ptr, ptr, ptr, ptr, i64, i64, i32 }

@lexbor_str_res_ansi_replacement_character = internal constant [4 x i8] c"\EF\BF\BD\00", align 1

; Function Attrs: nounwind uwtable
define internal i32 @lxb_html_tokenizer_temp_realloc(ptr noundef %0, i64 noundef %1) #0 {
  %3 = alloca i32, align 4
  %4 = alloca ptr, align 8
  %5 = alloca i64, align 8
  %6 = alloca i64, align 8
  %7 = alloca i64, align 8
  store ptr %0, ptr %4, align 8
  store i64 %1, ptr %5, align 8
  %8 = load ptr, ptr %4, align 8
  %9 = getelementptr inbounds %struct.lxb_html_tokenizer, ptr %8, i32 0, i32 17
  %10 = load ptr, ptr %9, align 8
  %11 = load ptr, ptr %4, align 8
  %12 = getelementptr inbounds %struct.lxb_html_tokenizer, ptr %11, i32 0, i32 16
  %13 = load ptr, ptr %12, align 8
  %14 = ptrtoint ptr %10 to i64
  %15 = ptrtoint ptr %13 to i64
  %16 = sub i64 %14, %15
  store i64 %16, ptr %6, align 8
  %17 = load ptr, ptr %4, align 8
  %18 = getelementptr inbounds %struct.lxb_html_tokenizer, ptr %17, i32 0, i32 18
  %19 = load ptr, ptr %18, align 8
  %20 = load ptr, ptr %4, align 8
  %21 = getelementptr inbounds %struct.lxb_html_tokenizer, ptr %20, i32 0, i32 16
  %22 = load ptr, ptr %21, align 8
  %23 = ptrtoint ptr %19 to i64
  %24 = ptrtoint ptr %22 to i64
  %25 = sub i64 %23, %24
  %26 = load i64, ptr %5, align 8
  %27 = add i64 %25, %26
  %28 = add i64 %27, 4096
  store i64 %28, ptr %7, align 8
  %29 = load ptr, ptr %4, align 8
  %30 = getelementptr inbounds %struct.lxb_html_tokenizer, ptr %29, i32 0, i32 16
  %31 = load ptr, ptr %30, align 8
  %32 = load i64, ptr %7, align 8
  %33 = call ptr @lexbor_realloc(ptr noundef %31, i64 noundef %32)
  %34 = load ptr, ptr %4, align 8
  %35 = getelementptr inbounds %struct.lxb_html_tokenizer, ptr %34, i32 0, i32 16
  store ptr %33, ptr %35, align 8
  %36 = load ptr, ptr %4, align 8
  %37 = getelementptr inbounds %struct.lxb_html_tokenizer, ptr %36, i32 0, i32 16
  %38 = load ptr, ptr %37, align 8
  %39 = icmp eq ptr %38, null
  br i1 %39, label %40, label %46

40:                                               ; preds = %2
  %41 = load ptr, ptr %4, align 8
  %42 = getelementptr inbounds %struct.lxb_html_tokenizer, ptr %41, i32 0, i32 31
  store i32 2, ptr %42, align 8
  %43 = load ptr, ptr %4, align 8
  %44 = getelementptr inbounds %struct.lxb_html_tokenizer, ptr %43, i32 0, i32 31
  %45 = load i32, ptr %44, align 8
  store i32 %45, ptr %3, align 4
  br label %61

46:                                               ; preds = %2
  %47 = load ptr, ptr %4, align 8
  %48 = getelementptr inbounds %struct.lxb_html_tokenizer, ptr %47, i32 0, i32 16
  %49 = load ptr, ptr %48, align 8
  %50 = load i64, ptr %6, align 8
  %51 = getelementptr inbounds i8, ptr %49, i64 %50
  %52 = load ptr, ptr %4, align 8
  %53 = getelementptr inbounds %struct.lxb_html_tokenizer, ptr %52, i32 0, i32 17
  store ptr %51, ptr %53, align 8
  %54 = load ptr, ptr %4, align 8
  %55 = getelementptr inbounds %struct.lxb_html_tokenizer, ptr %54, i32 0, i32 16
  %56 = load ptr, ptr %55, align 8
  %57 = load i64, ptr %7, align 8
  %58 = getelementptr inbounds i8, ptr %56, i64 %57
  %59 = load ptr, ptr %4, align 8
  %60 = getelementptr inbounds %struct.lxb_html_tokenizer, ptr %59, i32 0, i32 18
  store ptr %58, ptr %60, align 8
  store i32 0, ptr %3, align 4
  br label %61

61:                                               ; preds = %46, %40
  %62 = load i32, ptr %3, align 4
  ret i32 %62
}

; Function Attrs: nounwind uwtable
define internal void @lxb_html_token_clean(ptr noundef %0) #0 {
  %2 = alloca ptr, align 8
  store ptr %0, ptr %2, align 8
  %3 = load ptr, ptr %2, align 8
  call void @llvm.memset.p0.i64(ptr align 8 %3, i8 0, i64 96, i1 false)
  ret void
}

; Function Attrs: nounwind uwtable
define internal i32 @lxb_html_tokenizer_temp_append(ptr noundef %0, ptr noundef %1, i64 noundef %2) #0 {
  %4 = alloca i32, align 4
  %5 = alloca ptr, align 8
  %6 = alloca ptr, align 8
  %7 = alloca i64, align 8
  store ptr %0, ptr %5, align 8
  store ptr %1, ptr %6, align 8
  store i64 %2, ptr %7, align 8
  %8 = load ptr, ptr %5, align 8
  %9 = getelementptr inbounds %struct.lxb_html_tokenizer, ptr %8, i32 0, i32 17
  %10 = load ptr, ptr %9, align 8
  %11 = load i64, ptr %7, align 8
  %12 = getelementptr inbounds i8, ptr %10, i64 %11
  %13 = load ptr, ptr %5, align 8
  %14 = getelementptr inbounds %struct.lxb_html_tokenizer, ptr %13, i32 0, i32 18
  %15 = load ptr, ptr %14, align 8
  %16 = icmp ugt ptr %12, %15
  br i1 %16, label %17, label %27

17:                                               ; preds = %3
  %18 = load ptr, ptr %5, align 8
  %19 = load i64, ptr %7, align 8
  %20 = call i32 @lxb_html_tokenizer_temp_realloc(ptr noundef %18, i64 noundef %19)
  %21 = icmp ne i32 %20, 0
  br i1 %21, label %22, label %26

22:                                               ; preds = %17
  %23 = load ptr, ptr %5, align 8
  %24 = getelementptr inbounds %struct.lxb_html_tokenizer, ptr %23, i32 0, i32 31
  %25 = load i32, ptr %24, align 8
  store i32 %25, ptr %4, align 4
  br label %37

26:                                               ; preds = %17
  br label %27

27:                                               ; preds = %26, %3
  %28 = load ptr, ptr %5, align 8
  %29 = getelementptr inbounds %struct.lxb_html_tokenizer, ptr %28, i32 0, i32 17
  %30 = load ptr, ptr %29, align 8
  %31 = load ptr, ptr %6, align 8
  %32 = load i64, ptr %7, align 8
  call void @llvm.memcpy.p0.p0.i64(ptr align 1 %30, ptr align 1 %31, i64 %32, i1 false)
  %33 = load i64, ptr %7, align 8
  %34 = getelementptr inbounds i8, ptr %30, i64 %33
  %35 = load ptr, ptr %5, align 8
  %36 = getelementptr inbounds %struct.lxb_html_tokenizer, ptr %35, i32 0, i32 17
  store ptr %34, ptr %36, align 8
  store i32 0, ptr %4, align 4
  br label %37

37:                                               ; preds = %27, %22
  %38 = load i32, ptr %4, align 4
  ret i32 %38
}

; Function Attrs: nounwind uwtable
define internal ptr @lxb_html_tokenizer_state_script_data_double_escaped_dash(ptr noundef %0, ptr noundef %1, ptr noundef %2) #0 {
  %4 = alloca ptr, align 8
  %5 = alloca ptr, align 8
  %6 = alloca ptr, align 8
  %7 = alloca ptr, align 8
  store ptr %0, ptr %5, align 8
  store ptr %1, ptr %6, align 8
  store ptr %2, ptr %7, align 8
  %8 = load ptr, ptr %6, align 8
  %9 = load i8, ptr %8, align 1
  %10 = zext i8 %9 to i32
  switch i32 %10, label %149 [
    i32 45, label %11
    i32 60, label %25
    i32 0, label %39
  ]

11:                                               ; preds = %3
  br label %12

12:                                               ; preds = %11
  %13 = load ptr, ptr %5, align 8
  %14 = load ptr, ptr %6, align 8
  %15 = call i32 @lxb_html_tokenizer_temp_append(ptr noundef %13, ptr noundef %14, i64 noundef 1)
  %16 = icmp ne i32 %15, 0
  br i1 %16, label %17, label %19

17:                                               ; preds = %12
  %18 = load ptr, ptr %7, align 8
  store ptr %18, ptr %4, align 8
  br label %153

19:                                               ; preds = %12
  br label %20

20:                                               ; preds = %19
  %21 = load ptr, ptr %5, align 8
  %22 = getelementptr inbounds %struct.lxb_html_tokenizer, ptr %21, i32 0, i32 0
  store ptr @lxb_html_tokenizer_state_script_data_double_escaped_dash_dash, ptr %22, align 8
  %23 = load ptr, ptr %6, align 8
  %24 = getelementptr inbounds i8, ptr %23, i64 1
  store ptr %24, ptr %4, align 8
  br label %153

25:                                               ; preds = %3
  br label %26

26:                                               ; preds = %25
  %27 = load ptr, ptr %5, align 8
  %28 = load ptr, ptr %6, align 8
  %29 = call i32 @lxb_html_tokenizer_temp_append(ptr noundef %27, ptr noundef %28, i64 noundef 1)
  %30 = icmp ne i32 %29, 0
  br i1 %30, label %31, label %33

31:                                               ; preds = %26
  %32 = load ptr, ptr %7, align 8
  store ptr %32, ptr %4, align 8
  br label %153

33:                                               ; preds = %26
  br label %34

34:                                               ; preds = %33
  %35 = load ptr, ptr %5, align 8
  %36 = getelementptr inbounds %struct.lxb_html_tokenizer, ptr %35, i32 0, i32 0
  store ptr @lxb_html_tokenizer_state_script_data_double_escaped_less_than_sign, ptr %36, align 8
  %37 = load ptr, ptr %6, align 8
  %38 = getelementptr inbounds i8, ptr %37, i64 1
  store ptr %38, ptr %4, align 8
  br label %153

39:                                               ; preds = %3
  %40 = load ptr, ptr %5, align 8
  %41 = getelementptr inbounds %struct.lxb_html_tokenizer, ptr %40, i32 0, i32 32
  %42 = load i8, ptr %41, align 4
  %43 = trunc i8 %42 to i1
  br i1 %43, label %44, label %131

44:                                               ; preds = %39
  %45 = load ptr, ptr %5, align 8
  %46 = getelementptr inbounds %struct.lxb_html_tokenizer, ptr %45, i32 0, i32 11
  %47 = load ptr, ptr %46, align 8
  %48 = load ptr, ptr %5, align 8
  %49 = getelementptr inbounds %struct.lxb_html_tokenizer, ptr %48, i32 0, i32 20
  %50 = load ptr, ptr %49, align 8
  %51 = call ptr @lxb_html_tokenizer_error_add(ptr noundef %47, ptr noundef %50, i32 noundef 15)
  %52 = load ptr, ptr %5, align 8
  %53 = getelementptr inbounds %struct.lxb_html_tokenizer, ptr %52, i32 0, i32 8
  %54 = load ptr, ptr %53, align 8
  %55 = getelementptr inbounds %struct.lxb_html_token_t, ptr %54, i32 0, i32 10
  store i64 2, ptr %55, align 8
  br label %56

56:                                               ; preds = %44
  %57 = load ptr, ptr %5, align 8
  %58 = getelementptr inbounds %struct.lxb_html_tokenizer, ptr %57, i32 0, i32 16
  %59 = load ptr, ptr %58, align 8
  %60 = load ptr, ptr %5, align 8
  %61 = getelementptr inbounds %struct.lxb_html_tokenizer, ptr %60, i32 0, i32 8
  %62 = load ptr, ptr %61, align 8
  %63 = getelementptr inbounds %struct.lxb_html_token_t, ptr %62, i32 0, i32 4
  store ptr %59, ptr %63, align 8
  %64 = load ptr, ptr %5, align 8
  %65 = getelementptr inbounds %struct.lxb_html_tokenizer, ptr %64, i32 0, i32 17
  %66 = load ptr, ptr %65, align 8
  %67 = load ptr, ptr %5, align 8
  %68 = getelementptr inbounds %struct.lxb_html_tokenizer, ptr %67, i32 0, i32 8
  %69 = load ptr, ptr %68, align 8
  %70 = getelementptr inbounds %struct.lxb_html_token_t, ptr %69, i32 0, i32 5
  store ptr %66, ptr %70, align 8
  br label %71

71:                                               ; preds = %56
  %72 = load ptr, ptr %5, align 8
  %73 = getelementptr inbounds %struct.lxb_html_tokenizer, ptr %72, i32 0, i32 20
  %74 = load ptr, ptr %73, align 8
  %75 = load ptr, ptr %5, align 8
  %76 = getelementptr inbounds %struct.lxb_html_tokenizer, ptr %75, i32 0, i32 8
  %77 = load ptr, ptr %76, align 8
  %78 = getelementptr inbounds %struct.lxb_html_token_t, ptr %77, i32 0, i32 1
  store ptr %74, ptr %78, align 8
  br label %79

79:                                               ; preds = %71
  %80 = load ptr, ptr %5, align 8
  %81 = getelementptr inbounds %struct.lxb_html_tokenizer, ptr %80, i32 0, i32 8
  %82 = load ptr, ptr %81, align 8
  %83 = getelementptr inbounds %struct.lxb_html_token_t, ptr %82, i32 0, i32 0
  %84 = load ptr, ptr %83, align 8
  %85 = load ptr, ptr %5, align 8
  %86 = getelementptr inbounds %struct.lxb_html_tokenizer, ptr %85, i32 0, i32 8
  %87 = load ptr, ptr %86, align 8
  %88 = getelementptr inbounds %struct.lxb_html_token_t, ptr %87, i32 0, i32 1
  %89 = load ptr, ptr %88, align 8
  %90 = icmp ne ptr %84, %89
  br i1 %90, label %91, label %120

91:                                               ; preds = %79
  %92 = load ptr, ptr %5, align 8
  %93 = getelementptr inbounds %struct.lxb_html_tokenizer, ptr %92, i32 0, i32 2
  %94 = load ptr, ptr %93, align 8
  %95 = load ptr, ptr %5, align 8
  %96 = load ptr, ptr %5, align 8
  %97 = getelementptr inbounds %struct.lxb_html_tokenizer, ptr %96, i32 0, i32 8
  %98 = load ptr, ptr %97, align 8
  %99 = load ptr, ptr %5, align 8
  %100 = getelementptr inbounds %struct.lxb_html_tokenizer, ptr %99, i32 0, i32 3
  %101 = load ptr, ptr %100, align 8
  %102 = call ptr %94(ptr noundef %95, ptr noundef %98, ptr noundef %101)
  %103 = load ptr, ptr %5, align 8
  %104 = getelementptr inbounds %struct.lxb_html_tokenizer, ptr %103, i32 0, i32 8
  store ptr %102, ptr %104, align 8
  %105 = load ptr, ptr %5, align 8
  %106 = getelementptr inbounds %struct.lxb_html_tokenizer, ptr %105, i32 0, i32 8
  %107 = load ptr, ptr %106, align 8
  %108 = icmp eq ptr %107, null
  br i1 %108, label %109, label %119

109:                                              ; preds = %91
  %110 = load ptr, ptr %5, align 8
  %111 = getelementptr inbounds %struct.lxb_html_tokenizer, ptr %110, i32 0, i32 31
  %112 = load i32, ptr %111, align 8
  %113 = icmp eq i32 %112, 0
  br i1 %113, label %114, label %117

114:                                              ; preds = %109
  %115 = load ptr, ptr %5, align 8
  %116 = getelementptr inbounds %struct.lxb_html_tokenizer, ptr %115, i32 0, i32 31
  store i32 1, ptr %116, align 8
  br label %117

117:                                              ; preds = %114, %109
  %118 = load ptr, ptr %7, align 8
  store ptr %118, ptr %4, align 8
  br label %153

119:                                              ; preds = %91
  br label %120

120:                                              ; preds = %119, %79
  %121 = load ptr, ptr %5, align 8
  %122 = getelementptr inbounds %struct.lxb_html_tokenizer, ptr %121, i32 0, i32 8
  %123 = load ptr, ptr %122, align 8
  call void @lxb_html_token_clean(ptr noundef %123)
  %124 = load ptr, ptr %5, align 8
  %125 = getelementptr inbounds %struct.lxb_html_tokenizer, ptr %124, i32 0, i32 16
  %126 = load ptr, ptr %125, align 8
  %127 = load ptr, ptr %5, align 8
  %128 = getelementptr inbounds %struct.lxb_html_tokenizer, ptr %127, i32 0, i32 17
  store ptr %126, ptr %128, align 8
  br label %129

129:                                              ; preds = %120
  %130 = load ptr, ptr %7, align 8
  store ptr %130, ptr %4, align 8
  br label %153

131:                                              ; preds = %39
  br label %132

132:                                              ; preds = %131
  %133 = load ptr, ptr %5, align 8
  %134 = call i32 @lxb_html_tokenizer_temp_append(ptr noundef %133, ptr noundef @lexbor_str_res_ansi_replacement_character, i64 noundef 3)
  %135 = icmp ne i32 %134, 0
  br i1 %135, label %136, label %138

136:                                              ; preds = %132
  %137 = load ptr, ptr %7, align 8
  store ptr %137, ptr %4, align 8
  br label %153

138:                                              ; preds = %132
  br label %139

139:                                              ; preds = %138
  %140 = load ptr, ptr %5, align 8
  %141 = getelementptr inbounds %struct.lxb_html_tokenizer, ptr %140, i32 0, i32 11
  %142 = load ptr, ptr %141, align 8
  %143 = load ptr, ptr %6, align 8
  %144 = call ptr @lxb_html_tokenizer_error_add(ptr noundef %142, ptr noundef %143, i32 noundef 45)
  %145 = load ptr, ptr %5, align 8
  %146 = getelementptr inbounds %struct.lxb_html_tokenizer, ptr %145, i32 0, i32 0
  store ptr @lxb_html_tokenizer_state_script_data_double_escaped, ptr %146, align 8
  %147 = load ptr, ptr %6, align 8
  %148 = getelementptr inbounds i8, ptr %147, i64 1
  store ptr %148, ptr %4, align 8
  br label %153

149:                                              ; preds = %3
  %150 = load ptr, ptr %5, align 8
  %151 = getelementptr inbounds %struct.lxb_html_tokenizer, ptr %150, i32 0, i32 0
  store ptr @lxb_html_tokenizer_state_script_data_double_escaped, ptr %151, align 8
  %152 = load ptr, ptr %6, align 8
  store ptr %152, ptr %4, align 8
  br label %153

153:                                              ; preds = %149, %139, %136, %129, %117, %34, %31, %20, %17
  %154 = load ptr, ptr %4, align 8
  ret ptr %154
}