; Function Attrs: nounwind uwtable
define internal ptr @lxb_html_tokenizer_state_script_data_double_escaped_dash(ptr noundef %0, ptr noundef %1, ptr noundef readnone %2) #1 {
  %4 = load i8, ptr %1, align 1
  switch i8 %4, label %128 [
    i8 45, label %5
    i8 60, label %31
    i8 0, label %57
  ]

5:                                                ; preds = %3
  %6 = getelementptr inbounds i8, ptr %0, i64 136
  %7 = load ptr, ptr %6, align 8
  %8 = getelementptr inbounds i8, ptr %7, i64 1
  %9 = getelementptr inbounds i8, ptr %0, i64 144
  %10 = load ptr, ptr %9, align 8
  %11 = icmp ugt ptr %8, %10
  br i1 %11, label %12, label %26

12:                                               ; preds = %5
  %13 = getelementptr inbounds i8, ptr %0, i64 128
  %14 = load ptr, ptr %13, align 8
  %15 = ptrtoint ptr %14 to i64
  %16 = ptrtoint ptr %10 to i64
  %17 = add i64 %16, 4097
  %18 = sub i64 %17, %15
  %19 = tail call ptr @lexbor_realloc(ptr noundef %14, i64 noundef %18) #6
  store ptr %19, ptr %13, align 8
  %20 = icmp eq ptr %19, null
  br i1 %20, label %lxb_html_tokenizer_temp_append.exit, label %lxb_html_tokenizer_temp_realloc.exit.thread.i

lxb_html_tokenizer_temp_realloc.exit.thread.i:    ; preds = %12
  %21 = ptrtoint ptr %7 to i64
  %22 = sub i64 %21, %15
  %23 = getelementptr inbounds i8, ptr %19, i64 %22
  store ptr %23, ptr %6, align 8
  %24 = getelementptr inbounds i8, ptr %19, i64 %18
  store ptr %24, ptr %9, align 8
  %.pre63 = load i8, ptr %1, align 1
  br label %26

lxb_html_tokenizer_temp_append.exit:              ; preds = %12
  %25 = getelementptr inbounds i8, ptr %0, i64 232
  store i32 2, ptr %25, align 8
  br label %129

26:                                               ; preds = %5, %lxb_html_tokenizer_temp_realloc.exit.thread.i
  %27 = phi i8 [ %.pre63, %lxb_html_tokenizer_temp_realloc.exit.thread.i ], [ 45, %5 ]
  %28 = phi ptr [ %23, %lxb_html_tokenizer_temp_realloc.exit.thread.i ], [ %7, %5 ]
  store i8 %27, ptr %28, align 1
  %29 = getelementptr inbounds i8, ptr %28, i64 1
  store ptr %29, ptr %6, align 8
  store ptr @lxb_html_tokenizer_state_script_data_double_escaped_dash_dash, ptr %0, align 8
  %30 = getelementptr inbounds i8, ptr %1, i64 1
  br label %129

31:                                               ; preds = %3
  %32 = getelementptr inbounds i8, ptr %0, i64 136
  %33 = load ptr, ptr %32, align 8
  %34 = getelementptr inbounds i8, ptr %33, i64 1
  %35 = getelementptr inbounds i8, ptr %0, i64 144
  %36 = load ptr, ptr %35, align 8
  %37 = icmp ugt ptr %34, %36
  br i1 %37, label %38, label %52

38:                                               ; preds = %31
  %39 = getelementptr inbounds i8, ptr %0, i64 128
  %40 = load ptr, ptr %39, align 8
  %41 = ptrtoint ptr %40 to i64
  %42 = ptrtoint ptr %36 to i64
  %43 = add i64 %42, 4097
  %44 = sub i64 %43, %41
  %45 = tail call ptr @lexbor_realloc(ptr noundef %40, i64 noundef %44) #6
  store ptr %45, ptr %39, align 8
  %46 = icmp eq ptr %45, null
  br i1 %46, label %lxb_html_tokenizer_temp_append.exit51, label %lxb_html_tokenizer_temp_realloc.exit.thread.i50

lxb_html_tokenizer_temp_realloc.exit.thread.i50:  ; preds = %38
  %47 = ptrtoint ptr %33 to i64
  %48 = sub i64 %47, %41
  %49 = getelementptr inbounds i8, ptr %45, i64 %48
  store ptr %49, ptr %32, align 8
  %50 = getelementptr inbounds i8, ptr %45, i64 %44
  store ptr %50, ptr %35, align 8
  %.pre = load i8, ptr %1, align 1
  br label %52

lxb_html_tokenizer_temp_append.exit51:            ; preds = %38
  %51 = getelementptr inbounds i8, ptr %0, i64 232
  store i32 2, ptr %51, align 8
  br label %129

52:                                               ; preds = %31, %lxb_html_tokenizer_temp_realloc.exit.thread.i50
  %53 = phi i8 [ %.pre, %lxb_html_tokenizer_temp_realloc.exit.thread.i50 ], [ 60, %31 ]
  %54 = phi ptr [ %49, %lxb_html_tokenizer_temp_realloc.exit.thread.i50 ], [ %33, %31 ]
  store i8 %53, ptr %54, align 1
  %55 = getelementptr inbounds i8, ptr %54, i64 1
  store ptr %55, ptr %32, align 8
  store ptr @lxb_html_tokenizer_state_script_data_double_escaped_less_than_sign, ptr %0, align 8
  %56 = getelementptr inbounds i8, ptr %1, i64 1
  br label %129

57:                                               ; preds = %3
  %58 = getelementptr inbounds i8, ptr %0, i64 236
  %59 = load i8, ptr %58, align 4
  %60 = and i8 %59, 1
  %.not = icmp eq i8 %60, 0
  br i1 %.not, label %100, label %61

61:                                               ; preds = %57
  %62 = getelementptr inbounds i8, ptr %0, i64 88
  %63 = load ptr, ptr %62, align 8
  %64 = getelementptr inbounds i8, ptr %0, i64 160
  %65 = load ptr, ptr %64, align 8
  %66 = tail call ptr @lxb_html_tokenizer_error_add(ptr noundef %63, ptr noundef %65, i32 noundef 15) #6
  %67 = getelementptr inbounds i8, ptr %0, i64 64
  %68 = load ptr, ptr %67, align 8
  %69 = getelementptr inbounds i8, ptr %68, i64 80
  store i64 2, ptr %69, align 8
  %70 = getelementptr inbounds i8, ptr %0, i64 128
  %71 = load ptr, ptr %70, align 8
  %72 = load ptr, ptr %67, align 8
  %73 = getelementptr inbounds i8, ptr %72, i64 32
  store ptr %71, ptr %73, align 8
  %74 = getelementptr inbounds i8, ptr %0, i64 136
  %75 = load ptr, ptr %74, align 8
  %76 = load ptr, ptr %67, align 8
  %77 = getelementptr inbounds i8, ptr %76, i64 40
  store ptr %75, ptr %77, align 8
  %78 = load ptr, ptr %64, align 8
  %79 = load ptr, ptr %67, align 8
  %80 = getelementptr inbounds i8, ptr %79, i64 8
  store ptr %78, ptr %80, align 8
  %81 = load ptr, ptr %67, align 8
  %82 = load ptr, ptr %81, align 8
  %83 = getelementptr inbounds i8, ptr %81, i64 8
  %84 = load ptr, ptr %83, align 8
  %.not46 = icmp eq ptr %82, %84
  br i1 %.not46, label %97, label %85

85:                                               ; preds = %61
  %86 = getelementptr inbounds i8, ptr %0, i64 16
  %87 = load ptr, ptr %86, align 8
  %88 = getelementptr inbounds i8, ptr %0, i64 24
  %89 = load ptr, ptr %88, align 8
  %90 = tail call ptr %87(ptr noundef nonnull %0, ptr noundef nonnull %81, ptr noundef %89) #6
  store ptr %90, ptr %67, align 8
  %91 = icmp eq ptr %90, null
  br i1 %91, label %92, label %97

92:                                               ; preds = %85
  %93 = getelementptr inbounds i8, ptr %0, i64 232
  %94 = load i32, ptr %93, align 8
  %95 = icmp eq i32 %94, 0
  br i1 %95, label %96, label %129

96:                                               ; preds = %92
  store i32 1, ptr %93, align 8
  br label %129

97:                                               ; preds = %85, %61
  %98 = phi ptr [ %90, %85 ], [ %81, %61 ]
  tail call void @llvm.memset.p0.i64(ptr noundef nonnull align 8 dereferenceable(96) %98, i8 0, i64 96, i1 false)
  %99 = load ptr, ptr %70, align 8
  store ptr %99, ptr %74, align 8
  br label %129

100:                                              ; preds = %57
  %101 = getelementptr inbounds i8, ptr %0, i64 136
  %102 = load ptr, ptr %101, align 8
  %103 = getelementptr inbounds i8, ptr %102, i64 3
  %104 = getelementptr inbounds i8, ptr %0, i64 144
  %105 = load ptr, ptr %104, align 8
  %106 = icmp ugt ptr %103, %105
  br i1 %106, label %107, label %121

107:                                              ; preds = %100
  %108 = getelementptr inbounds i8, ptr %0, i64 128
  %109 = load ptr, ptr %108, align 8
  %110 = ptrtoint ptr %109 to i64
  %111 = ptrtoint ptr %105 to i64
  %112 = add i64 %111, 4099
  %113 = sub i64 %112, %110
  %114 = tail call ptr @lexbor_realloc(ptr noundef %109, i64 noundef %113) #6
  store ptr %114, ptr %108, align 8
  %115 = icmp eq ptr %114, null
  br i1 %115, label %lxb_html_tokenizer_temp_append.exit54, label %lxb_html_tokenizer_temp_realloc.exit.thread.i53

lxb_html_tokenizer_temp_realloc.exit.thread.i53:  ; preds = %107
  %116 = ptrtoint ptr %102 to i64
  %117 = sub i64 %116, %110
  %118 = getelementptr inbounds i8, ptr %114, i64 %117
  %119 = getelementptr inbounds i8, ptr %114, i64 %113
  store ptr %119, ptr %104, align 8
  br label %121

lxb_html_tokenizer_temp_append.exit54:            ; preds = %107
  %120 = getelementptr inbounds i8, ptr %0, i64 232
  store i32 2, ptr %120, align 8
  br label %129

121:                                              ; preds = %100, %lxb_html_tokenizer_temp_realloc.exit.thread.i53
  %122 = phi ptr [ %118, %lxb_html_tokenizer_temp_realloc.exit.thread.i53 ], [ %102, %100 ]
  tail call void @llvm.memcpy.p0.p0.i64(ptr noundef nonnull align 1 dereferenceable(3) %122, ptr noundef nonnull align 1 dereferenceable(3) @lexbor_str_res_ansi_replacement_character, i64 3, i1 false)
  %123 = getelementptr inbounds i8, ptr %122, i64 3
  store ptr %123, ptr %101, align 8
  %124 = getelementptr inbounds i8, ptr %0, i64 88
  %125 = load ptr, ptr %124, align 8
  %126 = tail call ptr @lxb_html_tokenizer_error_add(ptr noundef %125, ptr noundef nonnull %1, i32 noundef 45) #6
  store ptr @lxb_html_tokenizer_state_script_data_double_escaped, ptr %0, align 8
  %127 = getelementptr inbounds i8, ptr %1, i64 1
  br label %129

128:                                              ; preds = %3
  store ptr @lxb_html_tokenizer_state_script_data_double_escaped, ptr %0, align 8
  br label %129

129:                                              ; preds = %lxb_html_tokenizer_temp_append.exit54, %lxb_html_tokenizer_temp_append.exit51, %lxb_html_tokenizer_temp_append.exit, %92, %96, %128, %121, %97, %52, %26
  %.0 = phi ptr [ %1, %128 ], [ %2, %97 ], [ %127, %121 ], [ %56, %52 ], [ %30, %26 ], [ %2, %lxb_html_tokenizer_temp_append.exit ], [ %2, %lxb_html_tokenizer_temp_append.exit51 ], [ %2, %96 ], [ %2, %92 ], [ %2, %lxb_html_tokenizer_temp_append.exit54 ]
  ret ptr %.0
}